; Function Attrs: mustprogress uwtable
define void @_ZN2cv6detail5Graph7addEdgeEiif(ptr noundef nonnull readonly align 8 captures(none) dereferenceable(24) %0, i32 noundef %1, i32 noundef %2, float noundef %3) local_unnamed_addr #3 align 2 personality ptr @__gxx_personality_v0 {
  %5 = sext i32 %1 to i64
  %6 = load ptr, ptr %0, align 8, !tbaa !16
  %7 = getelementptr inbounds nuw %"class.std::__cxx11::list", ptr %6, i64 %5
  %8 = tail call noalias noundef nonnull dereferenceable(32) ptr @_Znwm(i64 noundef 32) #19
  %9 = getelementptr inbounds nuw i8, ptr %8, i64 16
  store i32 %1, ptr %9, align 4, !tbaa !3
  %.sroa.4.0..sroa_idx = getelementptr inbounds nuw i8, ptr %8, i64 20
  store i32 %2, ptr %.sroa.4.0..sroa_idx, align 4, !tbaa !3
  %.sroa.5.0..sroa_idx = getelementptr inbounds nuw i8, ptr %8, i64 24
  store float %3, ptr %.sroa.5.0..sroa_idx, align 4, !tbaa !19
  tail call void @_ZNSt8__detail15_List_node_base7_M_hookEPS0_(ptr noundef nonnull align 8 dereferenceable(16) %8, ptr noundef nonnull align 8 dereferenceable(24) %7) #18
  %10 = getelementptr inbounds nuw i8, ptr %7, i64 16
  %11 = load i64, ptr %10, align 8, !tbaa !21
  %12 = add i64 %11, 1
  store i64 %12, ptr %10, align 8, !tbaa !21
  ret void
}